target datalayout = "e-m:e-p270:32:32-p271:32:32-p272:64:64-i64:64-i128:128-f80:128-n8:16:32:64-S128"
target triple = "x86_64-pc-linux-gnu"

; Function Attrs: mustprogress uwtable
define internal noundef ptr @_ZL16as_socket_base_tPv(ptr noundef %0) #1 {
  %2 = alloca ptr, align 8
  %3 = alloca ptr, align 8
  %4 = alloca ptr, align 8
  %5 = alloca i32, align 4
  store ptr %0, ptr %3, align 8, !tbaa !12
  call void @llvm.lifetime.start.p0(i64 8, ptr %4) #20
  %6 = load ptr, ptr %3, align 8, !tbaa !12
  store ptr %6, ptr %4, align 8, !tbaa !17
  %7 = load ptr, ptr %3, align 8, !tbaa !12
  %8 = icmp ne ptr %7, null
  br i1 %8, label %9, label %12

9:                                                ; preds = %1
  %10 = load ptr, ptr %4, align 8, !tbaa !17
  %11 = call noundef zeroext i1 @_ZNK3zmq13socket_base_t9check_tagEv(ptr noundef nonnull align 8 dereferenceable(1825) %10)
  br i1 %11, label %14, label %12

12:                                               ; preds = %9, %1
  %13 = call ptr @__errno_location() #19
  store i32 88, ptr %13, align 4, !tbaa !8
  store ptr null, ptr %2, align 8
  store i32 1, ptr %5, align 4
  br label %16

14:                                               ; preds = %9
  %15 = load ptr, ptr %4, align 8, !tbaa !17
  store ptr %15, ptr %2, align 8
  store i32 1, ptr %5, align 4
  br label %16

16:                                               ; preds = %14, %12
  call void @llvm.lifetime.end.p0(i64 8, ptr %4) #20
  %17 = load ptr, ptr %2, align 8
  ret ptr %17
}

; Function Attrs: mustprogress uwtable
define i32 @zmq_disconnect(ptr noundef %0, ptr noundef %1) #1 {
  %3 = alloca i32, align 4
  %4 = alloca ptr, align 8
  %5 = alloca ptr, align 8
  %6 = alloca ptr, align 8
  %7 = alloca i32, align 4
  store ptr %0, ptr %4, align 8, !tbaa !12
  store ptr %1, ptr %5, align 8, !tbaa !19
  call void @llvm.lifetime.start.p0(i64 8, ptr %6) #20
  %8 = load ptr, ptr %4, align 8, !tbaa !12
  %9 = call noundef ptr @_ZL16as_socket_base_tPv(ptr noundef %8)
  store ptr %9, ptr %6, align 8, !tbaa !17
  %10 = load ptr, ptr %6, align 8, !tbaa !17
  %11 = icmp ne ptr %10, null
  br i1 %11, label %13, label %12

12:                                               ; preds = %2
  store i32 -1, ptr %3, align 4
  store i32 1, ptr %7, align 4
  br label %17

13:                                               ; preds = %2
  %14 = load ptr, ptr %6, align 8, !tbaa !17
  %15 = load ptr, ptr %5, align 8, !tbaa !19
  %16 = call noundef i32 @_ZN3zmq13socket_base_t13term_endpointEPKc(ptr noundef nonnull align 8 dereferenceable(1825) %14, ptr noundef %15)
  store i32 %16, ptr %3, align 4
  store i32 1, ptr %7, align 4
  br label %17

17:                                               ; preds = %13, %12
  call void @llvm.lifetime.end.p0(i64 8, ptr %6) #20
  %18 = load i32, ptr %3, align 4
  ret i32 %18
}